target datalayout = "e-m:e-p270:32:32-p271:32:32-p272:64:64-i64:64-i128:128-f80:128-n8:16:32:64-S128"
target triple = "x86_64-pc-linux-gnu"

%struct.PutBitContext = type { i32, i32, ptr, ptr, ptr }

@.str.10 = private unnamed_addr constant [43 x i8] c"Internal error, put_bits buffer too small\0A\00", align 1
@.str.11 = private unnamed_addr constant [30 x i8] c"Assertion %s failed at %s:%d\0A\00", align 1
@.str.12 = private unnamed_addr constant [24 x i8] c"s->buf_ptr < s->buf_end\00", align 1
@.str.13 = private unnamed_addr constant [22 x i8] c"libavcodec/put_bits.h\00", align 1

; Function Attrs: alwaysinline nounwind willreturn memory(none) uwtable
define internal i32 @av_bswap32(i32 noundef %0) #6 {
  %2 = alloca i32, align 4
  store i32 %0, ptr %2, align 4, !tbaa !4
  %3 = load i32, ptr %2, align 4, !tbaa !4
  %4 = shl i32 %3, 8
  %5 = and i32 %4, 65280
  %6 = load i32, ptr %2, align 4, !tbaa !4
  %7 = lshr i32 %6, 8
  %8 = and i32 %7, 255
  %9 = or i32 %5, %8
  %10 = shl i32 %9, 16
  %11 = load i32, ptr %2, align 4, !tbaa !4
  %12 = lshr i32 %11, 16
  %13 = shl i32 %12, 8
  %14 = and i32 %13, 65280
  %15 = load i32, ptr %2, align 4, !tbaa !4
  %16 = lshr i32 %15, 16
  %17 = lshr i32 %16, 8
  %18 = and i32 %17, 255
  %19 = or i32 %14, %18
  %20 = or i32 %10, %19
  ret i32 %20
}

; Function Attrs: inlinehint nounwind uwtable
define internal void @put_bits_no_assert(ptr noundef %0, i32 noundef %1, i32 noundef %2) #4 {
  %4 = alloca ptr, align 8
  %5 = alloca i32, align 4
  %6 = alloca i32, align 4
  %7 = alloca i32, align 4
  %8 = alloca i32, align 4
  store ptr %0, ptr %4, align 8, !tbaa !61
  store i32 %1, ptr %5, align 4, !tbaa !4
  store i32 %2, ptr %6, align 4, !tbaa !4
  call void @llvm.lifetime.start.p0(i64 4, ptr %7) #9
  call void @llvm.lifetime.start.p0(i64 4, ptr %8) #9
  %9 = load ptr, ptr %4, align 8, !tbaa !61
  %10 = getelementptr inbounds nuw %struct.PutBitContext, ptr %9, i32 0, i32 0
  %11 = load i32, ptr %10, align 8, !tbaa !68
  store i32 %11, ptr %7, align 4, !tbaa !4
  %12 = load ptr, ptr %4, align 8, !tbaa !61
  %13 = getelementptr inbounds nuw %struct.PutBitContext, ptr %12, i32 0, i32 1
  %14 = load i32, ptr %13, align 4, !tbaa !67
  store i32 %14, ptr %8, align 4, !tbaa !4
  %15 = load i32, ptr %5, align 4, !tbaa !4
  %16 = load i32, ptr %8, align 4, !tbaa !4
  %17 = icmp slt i32 %15, %16
  br i1 %17, label %18, label %27

18:                                               ; preds = %3
  %19 = load i32, ptr %7, align 4, !tbaa !4
  %20 = load i32, ptr %5, align 4, !tbaa !4
  %21 = shl i32 %19, %20
  %22 = load i32, ptr %6, align 4, !tbaa !4
  %23 = or i32 %21, %22
  store i32 %23, ptr %7, align 4, !tbaa !4
  %24 = load i32, ptr %5, align 4, !tbaa !4
  %25 = load i32, ptr %8, align 4, !tbaa !4
  %26 = sub nsw i32 %25, %24
  store i32 %26, ptr %8, align 4, !tbaa !4
  br label %65

27:                                               ; preds = %3
  %28 = load i32, ptr %8, align 4, !tbaa !4
  %29 = load i32, ptr %7, align 4, !tbaa !4
  %30 = shl i32 %29, %28
  store i32 %30, ptr %7, align 4, !tbaa !4
  %31 = load i32, ptr %6, align 4, !tbaa !4
  %32 = load i32, ptr %5, align 4, !tbaa !4
  %33 = load i32, ptr %8, align 4, !tbaa !4
  %34 = sub nsw i32 %32, %33
  %35 = lshr i32 %31, %34
  %36 = load i32, ptr %7, align 4, !tbaa !4
  %37 = or i32 %36, %35
  store i32 %37, ptr %7, align 4, !tbaa !4
  %38 = load ptr, ptr %4, align 8, !tbaa !61
  %39 = getelementptr inbounds nuw %struct.PutBitContext, ptr %38, i32 0, i32 4
  %40 = load ptr, ptr %39, align 8, !tbaa !65
  %41 = load ptr, ptr %4, align 8, !tbaa !61
  %42 = getelementptr inbounds nuw %struct.PutBitContext, ptr %41, i32 0, i32 3
  %43 = load ptr, ptr %42, align 8, !tbaa !66
  %44 = ptrtoint ptr %40 to i64
  %45 = ptrtoint ptr %43 to i64
  %46 = sub i64 %44, %45
  %47 = icmp uge i64 %46, 4
  br i1 %47, label %48, label %58

48:                                               ; preds = %27
  %49 = load i32, ptr %7, align 4, !tbaa !4
  %50 = call i32 @av_bswap32(i32 noundef %49) #10
  %51 = load ptr, ptr %4, align 8, !tbaa !61
  %52 = getelementptr inbounds nuw %struct.PutBitContext, ptr %51, i32 0, i32 3
  %53 = load ptr, ptr %52, align 8, !tbaa !66
  store i32 %50, ptr %53, align 1, !tbaa !43
  %54 = load ptr, ptr %4, align 8, !tbaa !61
  %55 = getelementptr inbounds nuw %struct.PutBitContext, ptr %54, i32 0, i32 3
  %56 = load ptr, ptr %55, align 8, !tbaa !66
  %57 = getelementptr inbounds nuw i8, ptr %56, i64 4
  store ptr %57, ptr %55, align 8, !tbaa !66
  br label %59

58:                                               ; preds = %27
  call void (ptr, i32, ptr, ...) @av_log(ptr noundef null, i32 noundef 16, ptr noundef @.str.10)
  br label %59

59:                                               ; preds = %58, %48
  %60 = load i32, ptr %5, align 4, !tbaa !4
  %61 = sub nsw i32 32, %60
  %62 = load i32, ptr %8, align 4, !tbaa !4
  %63 = add nsw i32 %62, %61
  store i32 %63, ptr %8, align 4, !tbaa !4
  %64 = load i32, ptr %6, align 4, !tbaa !4
  store i32 %64, ptr %7, align 4, !tbaa !4
  br label %65

65:                                               ; preds = %59, %18
  %66 = load i32, ptr %7, align 4, !tbaa !4
  %67 = load ptr, ptr %4, align 8, !tbaa !61
  %68 = getelementptr inbounds nuw %struct.PutBitContext, ptr %67, i32 0, i32 0
  store i32 %66, ptr %68, align 8, !tbaa !68
  %69 = load i32, ptr %8, align 4, !tbaa !4
  %70 = load ptr, ptr %4, align 8, !tbaa !61
  %71 = getelementptr inbounds nuw %struct.PutBitContext, ptr %70, i32 0, i32 1
  store i32 %69, ptr %71, align 4, !tbaa !67
  call void @llvm.lifetime.end.p0(i64 4, ptr %8) #9
  call void @llvm.lifetime.end.p0(i64 4, ptr %7) #9
  ret void
}

; Function Attrs: inlinehint nounwind uwtable
define internal void @put_bits(ptr noundef %0, i32 noundef %1, i32 noundef %2) #4 {
  %4 = alloca ptr, align 8
  %5 = alloca i32, align 4
  %6 = alloca i32, align 4
  store ptr %0, ptr %4, align 8, !tbaa !61
  store i32 %1, ptr %5, align 4, !tbaa !4
  store i32 %2, ptr %6, align 4, !tbaa !4
  %7 = load ptr, ptr %4, align 8, !tbaa !61
  %8 = load i32, ptr %5, align 4, !tbaa !4
  %9 = load i32, ptr %6, align 4, !tbaa !4
  call void @put_bits_no_assert(ptr noundef %7, i32 noundef %8, i32 noundef %9)
  ret void
}

; Function Attrs: alwaysinline nounwind willreturn memory(none) uwtable
define internal i32 @av_zero_extend_c(i32 noundef %0, i32 noundef %1) #6 {
  %3 = alloca i32, align 4
  %4 = alloca i32, align 4
  store i32 %0, ptr %3, align 4, !tbaa !4
  store i32 %1, ptr %4, align 4, !tbaa !4
  %5 = load i32, ptr %3, align 4, !tbaa !4
  %6 = load i32, ptr %4, align 4, !tbaa !4
  %7 = shl i32 1, %6
  %8 = sub i32 %7, 1
  %9 = and i32 %5, %8
  ret i32 %9
}

; Function Attrs: inlinehint nounwind uwtable
define internal void @flush_put_bits(ptr noundef %0) #4 {
  %2 = alloca ptr, align 8
  store ptr %0, ptr %2, align 8, !tbaa !61
  %3 = load ptr, ptr %2, align 8, !tbaa !61
  %4 = getelementptr inbounds nuw %struct.PutBitContext, ptr %3, i32 0, i32 1
  %5 = load i32, ptr %4, align 4, !tbaa !67
  %6 = icmp slt i32 %5, 32
  br i1 %6, label %7, label %15

7:                                                ; preds = %1
  %8 = load ptr, ptr %2, align 8, !tbaa !61
  %9 = getelementptr inbounds nuw %struct.PutBitContext, ptr %8, i32 0, i32 1
  %10 = load i32, ptr %9, align 4, !tbaa !67
  %11 = load ptr, ptr %2, align 8, !tbaa !61
  %12 = getelementptr inbounds nuw %struct.PutBitContext, ptr %11, i32 0, i32 0
  %13 = load i32, ptr %12, align 8, !tbaa !68
  %14 = shl i32 %13, %10
  store i32 %14, ptr %12, align 8, !tbaa !68
  br label %15

15:                                               ; preds = %7, %1
  br label %16

16:                                               ; preds = %32, %15
  %17 = load ptr, ptr %2, align 8, !tbaa !61
  %18 = getelementptr inbounds nuw %struct.PutBitContext, ptr %17, i32 0, i32 1
  %19 = load i32, ptr %18, align 4, !tbaa !67
  %20 = icmp slt i32 %19, 32
  br i1 %20, label %21, label %50

21:                                               ; preds = %16
  br label %22

22:                                               ; preds = %21
  %23 = load ptr, ptr %2, align 8, !tbaa !61
  %24 = getelementptr inbounds nuw %struct.PutBitContext, ptr %23, i32 0, i32 3
  %25 = load ptr, ptr %24, align 8, !tbaa !66
  %26 = load ptr, ptr %2, align 8, !tbaa !61
  %27 = getelementptr inbounds nuw %struct.PutBitContext, ptr %26, i32 0, i32 4
  %28 = load ptr, ptr %27, align 8, !tbaa !65
  %29 = icmp ult ptr %25, %28
  br i1 %29, label %31, label %30

30:                                               ; preds = %22
  call void (ptr, i32, ptr, ...) @av_log(ptr noundef null, i32 noundef 0, ptr noundef @.str.11, ptr noundef @.str.12, ptr noundef @.str.13, i32 noundef 150)
  call void @abort() #11
  unreachable

31:                                               ; preds = %22
  br label %32

32:                                               ; preds = %31
  %33 = load ptr, ptr %2, align 8, !tbaa !61
  %34 = getelementptr inbounds nuw %struct.PutBitContext, ptr %33, i32 0, i32 0
  %35 = load i32, ptr %34, align 8, !tbaa !68
  %36 = lshr i32 %35, 24
  %37 = trunc i32 %36 to i8
  %38 = load ptr, ptr %2, align 8, !tbaa !61
  %39 = getelementptr inbounds nuw %struct.PutBitContext, ptr %38, i32 0, i32 3
  %40 = load ptr, ptr %39, align 8, !tbaa !66
  %41 = getelementptr inbounds nuw i8, ptr %40, i32 1
  store ptr %41, ptr %39, align 8, !tbaa !66
  store i8 %37, ptr %40, align 1, !tbaa !43
  %42 = load ptr, ptr %2, align 8, !tbaa !61
  %43 = getelementptr inbounds nuw %struct.PutBitContext, ptr %42, i32 0, i32 0
  %44 = load i32, ptr %43, align 8, !tbaa !68
  %45 = shl i32 %44, 8
  store i32 %45, ptr %43, align 8, !tbaa !68
  %46 = load ptr, ptr %2, align 8, !tbaa !61
  %47 = getelementptr inbounds nuw %struct.PutBitContext, ptr %46, i32 0, i32 1
  %48 = load i32, ptr %47, align 4, !tbaa !67
  %49 = add nsw i32 %48, 8
  store i32 %49, ptr %47, align 4, !tbaa !67
  br label %16, !llvm.loop !69

50:                                               ; preds = %16
  %51 = load ptr, ptr %2, align 8, !tbaa !61
  %52 = getelementptr inbounds nuw %struct.PutBitContext, ptr %51, i32 0, i32 1
  store i32 32, ptr %52, align 4, !tbaa !67
  %53 = load ptr, ptr %2, align 8, !tbaa !61
  %54 = getelementptr inbounds nuw %struct.PutBitContext, ptr %53, i32 0, i32 0
  store i32 0, ptr %54, align 8, !tbaa !68
  ret void
}

; Function Attrs: inlinehint nounwind uwtable
define internal void @put_sbits(ptr noundef %0, i32 noundef %1, i32 noundef %2) #4 {
  %4 = alloca ptr, align 8
  %5 = alloca i32, align 4
  %6 = alloca i32, align 4
  store ptr %0, ptr %4, align 8, !tbaa !61
  store i32 %1, ptr %5, align 4, !tbaa !4
  store i32 %2, ptr %6, align 4, !tbaa !4
  %7 = load ptr, ptr %4, align 8, !tbaa !61
  %8 = load i32, ptr %5, align 4, !tbaa !4
  %9 = load i32, ptr %6, align 4, !tbaa !4
  %10 = load i32, ptr %5, align 4, !tbaa !4
  %11 = call i32 @av_zero_extend_c(i32 noundef %9, i32 noundef %10) #10
  call void @put_bits(ptr noundef %7, i32 noundef %8, i32 noundef %11)
  ret void
}

; Function Attrs: inlinehint nounwind uwtable
define internal void @init_put_bits(ptr noundef %0, ptr noundef %1, i32 noundef %2) #4 {
  %4 = alloca ptr, align 8
  %5 = alloca ptr, align 8
  %6 = alloca i32, align 4
  store ptr %0, ptr %4, align 8, !tbaa !61
  store ptr %1, ptr %5, align 8, !tbaa !15
  store i32 %2, ptr %6, align 4, !tbaa !4
  %7 = load i32, ptr %6, align 4, !tbaa !4
  %8 = icmp slt i32 %7, 0
  br i1 %8, label %9, label %10

9:                                                ; preds = %3
  store i32 0, ptr %6, align 4, !tbaa !4
  store ptr null, ptr %5, align 8, !tbaa !15
  br label %10

10:                                               ; preds = %9, %3
  %11 = load ptr, ptr %5, align 8, !tbaa !15
  %12 = load ptr, ptr %4, align 8, !tbaa !61
  %13 = getelementptr inbounds nuw %struct.PutBitContext, ptr %12, i32 0, i32 2
  store ptr %11, ptr %13, align 8, !tbaa !63
  %14 = load ptr, ptr %4, align 8, !tbaa !61
  %15 = getelementptr inbounds nuw %struct.PutBitContext, ptr %14, i32 0, i32 2
  %16 = load ptr, ptr %15, align 8, !tbaa !63
  %17 = load i32, ptr %6, align 4, !tbaa !4
  %18 = sext i32 %17 to i64
  %19 = getelementptr inbounds i8, ptr %16, i64 %18
  %20 = load ptr, ptr %4, align 8, !tbaa !61
  %21 = getelementptr inbounds nuw %struct.PutBitContext, ptr %20, i32 0, i32 4
  store ptr %19, ptr %21, align 8, !tbaa !65
  %22 = load ptr, ptr %4, align 8, !tbaa !61
  %23 = getelementptr inbounds nuw %struct.PutBitContext, ptr %22, i32 0, i32 2
  %24 = load ptr, ptr %23, align 8, !tbaa !63
  %25 = load ptr, ptr %4, align 8, !tbaa !61
  %26 = getelementptr inbounds nuw %struct.PutBitContext, ptr %25, i32 0, i32 3
  store ptr %24, ptr %26, align 8, !tbaa !66
  %27 = load ptr, ptr %4, align 8, !tbaa !61
  %28 = getelementptr inbounds nuw %struct.PutBitContext, ptr %27, i32 0, i32 1
  store i32 32, ptr %28, align 4, !tbaa !67
  %29 = load ptr, ptr %4, align 8, !tbaa !61
  %30 = getelementptr inbounds nuw %struct.PutBitContext, ptr %29, i32 0, i32 0
  store i32 0, ptr %30, align 8, !tbaa !68
  ret void
}

; Function Attrs: nounwind uwtable
define internal void @put_line(ptr noundef %0, i32 noundef %1, i32 noundef %2, ptr noundef %3) #2 {
  %5 = alloca ptr, align 8
  %6 = alloca i32, align 4
  %7 = alloca i32, align 4
  %8 = alloca ptr, align 8
  %9 = alloca %struct.PutBitContext, align 8
  %10 = alloca i32, align 4
  %11 = alloca i32, align 4
  %12 = alloca i32, align 4
  %13 = alloca i32, align 4
  store ptr %0, ptr %5, align 8, !tbaa !15
  store i32 %1, ptr %6, align 4, !tbaa !4
  store i32 %2, ptr %7, align 4, !tbaa !4
  store ptr %3, ptr %8, align 8, !tbaa !17
  call void @llvm.lifetime.start.p0(i64 32, ptr %9) #9
  call void @llvm.lifetime.start.p0(i64 4, ptr %10) #9
  call void @llvm.lifetime.start.p0(i64 4, ptr %11) #9
  store i32 -1, ptr %11, align 4, !tbaa !4
  call void @llvm.lifetime.start.p0(i64 4, ptr %12) #9
  %14 = load i32, ptr %7, align 4, !tbaa !4
  store i32 %14, ptr %12, align 4, !tbaa !4
  call void @llvm.lifetime.start.p0(i64 4, ptr %13) #9
  store i32 0, ptr %13, align 4, !tbaa !4
  %15 = load ptr, ptr %5, align 8, !tbaa !15
  %16 = load i32, ptr %6, align 4, !tbaa !4
  call void @init_put_bits(ptr noundef %9, ptr noundef %15, i32 noundef %16)
  br label %17

17:                                               ; preds = %46, %4
  %18 = load i32, ptr %12, align 4, !tbaa !4
  %19 = icmp sgt i32 %18, 0
  br i1 %19, label %20, label %47

20:                                               ; preds = %17
  %21 = load ptr, ptr %8, align 8, !tbaa !17
  %22 = load i32, ptr %13, align 4, !tbaa !4
  %23 = add nsw i32 %22, 1
  store i32 %23, ptr %13, align 4, !tbaa !4
  %24 = sext i32 %22 to i64
  %25 = getelementptr inbounds i32, ptr %21, i64 %24
  %26 = load i32, ptr %25, align 4, !tbaa !4
  store i32 %26, ptr %10, align 4, !tbaa !4
  %27 = load i32, ptr %11, align 4, !tbaa !4
  %28 = xor i32 %27, -1
  store i32 %28, ptr %11, align 4, !tbaa !4
  %29 = load i32, ptr %10, align 4, !tbaa !4
  %30 = load i32, ptr %12, align 4, !tbaa !4
  %31 = sub nsw i32 %30, %29
  store i32 %31, ptr %12, align 4, !tbaa !4
  br label %32

32:                                               ; preds = %37, %20
  %33 = load i32, ptr %10, align 4, !tbaa !4
  %34 = icmp sgt i32 %33, 16
  br i1 %34, label %35, label %40

35:                                               ; preds = %32
  %36 = load i32, ptr %11, align 4, !tbaa !4
  call void @put_sbits(ptr noundef %9, i32 noundef 16, i32 noundef %36)
  br label %37

37:                                               ; preds = %35
  %38 = load i32, ptr %10, align 4, !tbaa !4
  %39 = sub nsw i32 %38, 16
  store i32 %39, ptr %10, align 4, !tbaa !4
  br label %32, !llvm.loop !49

40:                                               ; preds = %32
  %41 = load i32, ptr %10, align 4, !tbaa !4
  %42 = icmp ne i32 %41, 0
  br i1 %42, label %43, label %46

43:                                               ; preds = %40
  %44 = load i32, ptr %10, align 4, !tbaa !4
  %45 = load i32, ptr %11, align 4, !tbaa !4
  call void @put_sbits(ptr noundef %9, i32 noundef %44, i32 noundef %45)
  br label %46

46:                                               ; preds = %43, %40
  br label %17, !llvm.loop !50

47:                                               ; preds = %17
  call void @flush_put_bits(ptr noundef %9)
  call void @llvm.lifetime.end.p0(i64 4, ptr %13) #9
  call void @llvm.lifetime.end.p0(i64 4, ptr %12) #9
  call void @llvm.lifetime.end.p0(i64 4, ptr %11) #9
  call void @llvm.lifetime.end.p0(i64 4, ptr %10) #9
  call void @llvm.lifetime.end.p0(i64 32, ptr %9) #9
  ret void
}