; Function Attrs: nounwind uwtable
define internal fastcc void @put_line(ptr noundef %0, i32 noundef %1, i32 noundef %2, ptr noundef nonnull readonly captures(none) %3) unnamed_addr #2 {
  %5 = icmp slt i32 %1, 0
  %spec.select.i = select i1 %5, ptr null, ptr %0
  %spec.select11.i = tail call i32 @llvm.smax.i32(i32 %1, i32 0)
  %6 = zext nneg i32 %spec.select11.i to i64
  %7 = getelementptr inbounds nuw i8, ptr %spec.select.i, i64 %6
  %8 = icmp sgt i32 %2, 0
  br i1 %8, label %.lr.ph48, label %flush_put_bits.exit

.lr.ph48:                                         ; preds = %4
  %9 = ptrtoint ptr %7 to i64
  br label %10

10:                                               ; preds = %.lr.ph48, %put_sbits.exit20
  %indvars.iv = phi i64 [ 0, %.lr.ph48 ], [ %indvars.iv.next, %put_sbits.exit20 ]
  %.01445 = phi i32 [ %2, %.lr.ph48 ], [ %14, %put_sbits.exit20 ]
  %.01544 = phi i32 [ -1, %.lr.ph48 ], [ %13, %put_sbits.exit20 ]
  %.sroa.0.043 = phi i32 [ 0, %.lr.ph48 ], [ %.sroa.0.2, %put_sbits.exit20 ]
  %.sroa.13.042 = phi i32 [ 32, %.lr.ph48 ], [ %.sroa.13.2, %put_sbits.exit20 ]
  %.sroa.23.041 = phi ptr [ %spec.select.i, %.lr.ph48 ], [ %.sroa.23.2, %put_sbits.exit20 ]
  %indvars.iv.next = add nuw nsw i64 %indvars.iv, 1
  %11 = getelementptr inbounds nuw i32, ptr %3, i64 %indvars.iv
  %12 = load i32, ptr %11, align 4, !tbaa !29
  %13 = xor i32 %.01544, -1
  %14 = sub nsw i32 %.01445, %12
  %15 = icmp sgt i32 %12, 16
  br i1 %15, label %.lr.ph, label %._crit_edge

.lr.ph:                                           ; preds = %10
  %16 = and i32 %13, 65535
  br label %17

17:                                               ; preds = %.lr.ph, %put_sbits.exit
  %.01637 = phi i32 [ %12, %.lr.ph ], [ %35, %put_sbits.exit ]
  %.sroa.0.136 = phi i32 [ %.sroa.0.043, %.lr.ph ], [ %.026.i.i.i, %put_sbits.exit ]
  %.sroa.13.135 = phi i32 [ %.sroa.13.042, %.lr.ph ], [ %34, %put_sbits.exit ]
  %.sroa.23.134 = phi ptr [ %.sroa.23.041, %.lr.ph ], [ %.sroa.23.4, %put_sbits.exit ]
  %18 = icmp sgt i32 %.sroa.13.135, 16
  br i1 %18, label %19, label %22

19:                                               ; preds = %17
  %20 = shl i32 %.sroa.0.136, 16
  %21 = or disjoint i32 %20, %16
  br label %put_sbits.exit

22:                                               ; preds = %17
  %23 = ptrtoint ptr %.sroa.23.134 to i64
  %24 = sub i64 %9, %23
  %25 = icmp ugt i64 %24, 3
  br i1 %25, label %26, label %33

26:                                               ; preds = %22
  %27 = shl i32 %.sroa.0.136, %.sroa.13.135
  %28 = sub nsw i32 16, %.sroa.13.135
  %29 = lshr i32 %16, %28
  %30 = or i32 %29, %27
  %31 = tail call i32 @llvm.bswap.i32(i32 %30)
  store i32 %31, ptr %.sroa.23.134, align 1, !tbaa !36
  %32 = getelementptr inbounds nuw i8, ptr %.sroa.23.134, i64 4
  br label %put_sbits.exit

33:                                               ; preds = %22
  tail call void (ptr, i32, ptr, ...) @av_log(ptr noundef null, i32 noundef 16, ptr noundef nonnull @.str.10) #7
  br label %put_sbits.exit

put_sbits.exit:                                   ; preds = %26, %33, %19
  %.sink = phi i32 [ -16, %19 ], [ 16, %33 ], [ 16, %26 ]
  %.sroa.23.4 = phi ptr [ %.sroa.23.134, %19 ], [ %.sroa.23.134, %33 ], [ %32, %26 ]
  %.026.i.i.i = phi i32 [ %21, %19 ], [ %16, %33 ], [ %16, %26 ]
  %34 = add nsw i32 %.sroa.13.135, %.sink
  %35 = add nsw i32 %.01637, -16
  %36 = icmp sgt i32 %.01637, 32
  br i1 %36, label %17, label %._crit_edge, !llvm.loop !45

._crit_edge:                                      ; preds = %put_sbits.exit, %10
  %.sroa.23.1.lcssa = phi ptr [ %.sroa.23.041, %10 ], [ %.sroa.23.4, %put_sbits.exit ]
  %.sroa.13.1.lcssa = phi i32 [ %.sroa.13.042, %10 ], [ %34, %put_sbits.exit ]
  %.sroa.0.1.lcssa = phi i32 [ %.sroa.0.043, %10 ], [ %.026.i.i.i, %put_sbits.exit ]
  %.016.lcssa = phi i32 [ %12, %10 ], [ %35, %put_sbits.exit ]
  %.not = icmp eq i32 %.016.lcssa, 0
  br i1 %.not, label %put_sbits.exit20, label %37

37:                                               ; preds = %._crit_edge
  %notmask.i.i = shl nsw i32 -1, %.016.lcssa
  %38 = xor i32 %notmask.i.i, -1
  %39 = and i32 %38, %13
  %40 = icmp slt i32 %.016.lcssa, %.sroa.13.1.lcssa
  br i1 %40, label %41, label %45

41:                                               ; preds = %37
  %42 = shl i32 %.sroa.0.1.lcssa, %.016.lcssa
  %43 = or i32 %39, %42
  %44 = sub nsw i32 %.sroa.13.1.lcssa, %.016.lcssa
  br label %put_sbits.exit20

45:                                               ; preds = %37
  %46 = ptrtoint ptr %.sroa.23.1.lcssa to i64
  %47 = sub i64 %9, %46
  %48 = icmp ugt i64 %47, 3
  br i1 %48, label %49, label %56

49:                                               ; preds = %45
  %50 = shl i32 %.sroa.0.1.lcssa, %.sroa.13.1.lcssa
  %51 = sub nsw i32 %.016.lcssa, %.sroa.13.1.lcssa
  %52 = lshr i32 %39, %51
  %53 = or i32 %52, %50
  %54 = tail call i32 @llvm.bswap.i32(i32 %53)
  store i32 %54, ptr %.sroa.23.1.lcssa, align 1, !tbaa !36
  %55 = getelementptr inbounds nuw i8, ptr %.sroa.23.1.lcssa, i64 4
  br label %57

56:                                               ; preds = %45
  tail call void (ptr, i32, ptr, ...) @av_log(ptr noundef null, i32 noundef 16, ptr noundef nonnull @.str.10) #7
  br label %57

57:                                               ; preds = %56, %49
  %.sroa.23.5 = phi ptr [ %55, %49 ], [ %.sroa.23.1.lcssa, %56 ]
  %reass.sub.i17 = add nsw i32 %.sroa.13.1.lcssa, 32
  %58 = sub i32 %reass.sub.i17, %.016.lcssa
  br label %put_sbits.exit20

put_sbits.exit20:                                 ; preds = %57, %41, %._crit_edge
  %.sroa.23.2 = phi ptr [ %.sroa.23.1.lcssa, %._crit_edge ], [ %.sroa.23.1.lcssa, %41 ], [ %.sroa.23.5, %57 ]
  %.sroa.13.2 = phi i32 [ %.sroa.13.1.lcssa, %._crit_edge ], [ %44, %41 ], [ %58, %57 ]
  %.sroa.0.2 = phi i32 [ %.sroa.0.1.lcssa, %._crit_edge ], [ %43, %41 ], [ %39, %57 ]
  %59 = icmp sgt i32 %14, 0
  br i1 %59, label %10, label %._crit_edge49, !llvm.loop !46

._crit_edge49:                                    ; preds = %put_sbits.exit20
  %60 = icmp slt i32 %.sroa.13.2, 32
  br i1 %60, label %.lr.ph.i, label %flush_put_bits.exit

.lr.ph.i:                                         ; preds = %._crit_edge49
  %61 = shl i32 %.sroa.0.2, %.sroa.13.2
  br label %62

62:                                               ; preds = %65, %.lr.ph.i
  %.sroa.23.7 = phi ptr [ %.sroa.23.2, %.lr.ph.i ], [ %68, %65 ]
  %.sroa.13.3 = phi i32 [ %.sroa.13.2, %.lr.ph.i ], [ %70, %65 ]
  %.sroa.0.3 = phi i32 [ %61, %.lr.ph.i ], [ %69, %65 ]
  %63 = icmp ult ptr %.sroa.23.7, %7
  br i1 %63, label %65, label %64

64:                                               ; preds = %62
  tail call void (ptr, i32, ptr, ...) @av_log(ptr noundef null, i32 noundef 0, ptr noundef nonnull @.str.11, ptr noundef nonnull @.str.12, ptr noundef nonnull @.str.13, i32 noundef 150) #7
  tail call void @abort() #8
  unreachable

65:                                               ; preds = %62
  %66 = lshr i32 %.sroa.0.3, 24
  %67 = trunc nuw i32 %66 to i8
  %68 = getelementptr inbounds nuw i8, ptr %.sroa.23.7, i64 1
  store i8 %67, ptr %.sroa.23.7, align 1, !tbaa !36
  %69 = shl i32 %.sroa.0.3, 8
  %70 = add nsw i32 %.sroa.13.3, 8
  %71 = icmp slt i32 %.sroa.13.3, 24
  br i1 %71, label %62, label %flush_put_bits.exit, !llvm.loop !47

flush_put_bits.exit:                              ; preds = %65, %4, %._crit_edge49
  ret void
}